; Function Attrs: nounwind uwtable
define dso_local void @pgstat_delete_pending_entry(ptr noundef %0) local_unnamed_addr #0 {
  %2 = load ptr, ptr %0, align 8
  %3 = load i32, ptr %2, align 8
  %4 = add i32 %3, -1
  %5 = icmp ult i32 %4, 12
  br i1 %5, label %6, label %9

6:                                                ; preds = %1
  %7 = zext nneg i32 %3 to i64
  %8 = getelementptr inbounds nuw [13 x %struct.PgStat_KindInfo], ptr @pgstat_kind_builtin_infos, i64 0, i64 %7
  br label %pgstat_get_kind_info.exit

9:                                                ; preds = %1
  %10 = load ptr, ptr @pgstat_kind_custom_infos, align 8, !nonnull !7, !noundef !7
  %11 = sext i32 %3 to i64
  %12 = getelementptr ptr, ptr %10, i64 %11
  %13 = getelementptr i8, ptr %12, i64 -1024
  %14 = load ptr, ptr %13, align 8
  br label %pgstat_get_kind_info.exit

pgstat_get_kind_info.exit:                        ; preds = %6, %9
  %.0.i = phi ptr [ %8, %6 ], [ %14, %9 ]
  %15 = getelementptr inbounds nuw i8, ptr %0, i64 24
  %16 = load ptr, ptr %15, align 8
  %17 = getelementptr inbounds nuw i8, ptr %.0.i, i64 48
  %18 = load ptr, ptr %17, align 8
  %.not = icmp eq ptr %18, null
  br i1 %.not, label %20, label %19

19:                                               ; preds = %pgstat_get_kind_info.exit
  tail call void %18(ptr noundef nonnull %0) #17
  br label %20

20:                                               ; preds = %19, %pgstat_get_kind_info.exit
  tail call void @pfree(ptr noundef %16) #17
  store ptr null, ptr %15, align 8
  %21 = getelementptr inbounds nuw i8, ptr %0, i64 32
  %22 = getelementptr inbounds nuw i8, ptr %0, i64 40
  %23 = load ptr, ptr %22, align 8
  %24 = load ptr, ptr %21, align 8
  %25 = getelementptr inbounds nuw i8, ptr %24, i64 8
  store ptr %23, ptr %25, align 8
  %26 = load ptr, ptr %21, align 8
  store ptr %26, ptr %23, align 8
  ret void
}